(dp1
S'mean_blur'
p2
I5
sS'canny_thresh'
p3
I347
sS'pupil_size'
p4
F71.516448974609375
sS'canny_ratio'
p5
I2
sS'draw_pupil'
p6
I01
sS'bin_thresh'
p7
I79
sS'canny_aperture'
p8
I7
sS'display'
p9
I1
sS'pupil_ratio'
p10
F0.84707039594650269
s.