(dp1
S'pupil_size'
p2
F65.814140319824219
sS'canny_tolerance'
p3
I3
sS'display'
p4
I4
sS'pupil_size_tolerance'
p5
F15
sS'bin_thresh'
p6
I74
sS'sleep'
p7
F1
sS'canny_thresh'
p8
I8
sS'pupil_point'
p9
I01
sS'canny_apture'
p10
I5
sS'pupil_ratio'
p11
F0.83550500869750977
s.