(dp1
S'mean_blur'
p2
I3
sS'canny_thresh'
p3
I200
sS'pupil_size'
p4
F80
sS'canny_ratio'
p5
I2
sS'draw_pupil'
p6
I01
sS'bin_thresh'
p7
I117
sS'canny_aperture'
p8
I7
sS'display'
p9
I0
sS'pupil_ratio'
p10
F0.19519291818141937
s.