(dp1
S'pupil_size'
p2
F66.3804931640625
sS'draw_pupil'
p3
I01
sS'canny_ratio'
p4
I3
sS'display'
p5
I2
sS'pupil_size_tolerance'
p6
F15
sS'bin_thresh'
p7
I70
sS'canny_thresh'
p8
I31
sS'canny_apture'
p9
I3
sS'pupil_ratio'
p10
F0.81748390197753906
s.