(dp1
S'pupil_size'
p2
F75.746536254882812
sS'canny_tolerance'
p3
I1
sS'display'
p4
I4
sS'pupil_size_tolerance'
p5
F10
sS'bin_thresh'
p6
I95
sS'sleep'
p7
F0.019999999552965164
sS'canny_thresh'
p8
I90
sS'pupil_point'
p9
I01
sS'canny_apture'
p10
I5
sS'pupil_ratio'
p11
F0.82446557283401489
s.