(dp1
S'pupil_size'
p2
F61.679512023925781
sS'draw_pupil'
p3
I01
sS'canny_ratio'
p4
I3
sS'display'
p5
I2
sS'pupil_size_tolerance'
p6
F15
sS'bin_thresh'
p7
I70
sS'sleep'
p8
F0
sS'canny_thresh'
p9
I31
sS'canny_apture'
p10
I3
sS'pupil_ratio'
p11
F0.94099223613739014
s.