(dp1
S'pupil_size'
p2
F26.075984954833984
sS'draw_pupil'
p3
I01
sS'canny_ratio'
p4
I4
sS'display'
p5
I2
sS'pupil_size_tolerance'
p6
F53
sS'bin_thresh'
p7
I107
sS'canny_thresh'
p8
I51
sS'canny_apture'
p9
I5
sS'pupil_ratio'
p10
F0.700248122215271
s.