(dp1
S'mean_blur'
p2
I1
sS'pupil_size'
p3
F98.544692993164062
sS'draw_pupil'
p4
I00
sS'canny_ratio'
p5
I2
sS'display'
p6
I0
sS'pupil_size_tolerance'
p7
F38
sS'bin_thresh'
p8
I107
sS'canny_thresh'
p9
I23
sS'canny_apture'
p10
I3
sS'pupil_ratio'
p11
F0.8762049674987793
s.