(dp1
S'mean_blur'
p2
I1
sS'pupil_size'
p3
F96.296218872070312
sS'display'
p4
I2
sS'canny_ratio'
p5
I2
sS'draw_pupil'
p6
I01
sS'bin_thresh'
p7
I107
sS'pupil_min_size'
p8
F61
sS'canny_thresh'
p9
I23
sS'pupil_max_size'
p10
F100
sS'canny_apture'
p11
I3
sS'pupil_ratio'
p12
F0.77511215209960938
s.