(dp1
S'pupil_size'
p2
F71.612411499023438
sS'canny_tolerance'
p3
I100
sS'display'
p4
I4
sS'pupil_size_tolerance'
p5
F5
sS'bin_thresh'
p6
I60
sS'sleep'
p7
F0.40000000596046448
sS'canny_thresh'
p8
I200
sS'pupil_point'
p9
I01
sS'canny_apture'
p10
I7
sS'pupil_ratio'
p11
F0.86958497762680054
s.