(dp1
S'mean_blur'
p2
I1
sS'canny_thresh'
p3
I56
sS'pupil_size'
p4
F30
sS'canny_ratio'
p5
I2
sS'draw_pupil'
p6
I01
sS'bin_thresh'
p7
I118
sS'canny_aperture'
p8
I3
sS'display'
p9
I1
sS'pupil_ratio'
p10
F0.5
s.