(dp1
S'mean_blur'
p2
I5
sS'canny_thresh'
p3
I347
sS'pupil_size'
p4
F100.25301361083984
sS'canny_ratio'
p5
I2
sS'draw_pupil'
p6
I01
sS'bin_thresh'
p7
I149
sS'canny_aperture'
p8
I5
sS'display'
p9
I2
sS'pupil_ratio'
p10
F0.68342864513397217
s.