(dp1
S'mean_blur'
p2
I1
sS'pupil_size'
p3
F90.514053344726562
sS'draw_pupil'
p4
I01
sS'canny_ratio'
p5
I2
sS'display'
p6
I2
sS'bin_thresh'
p7
I107
sS'canny_thresh'
p8
I23
sS'canny_apture'
p9
I3
sS'pupil_ratio'
p10
F0.85936397314071655
s.