(dp1
S'mean_blur'
p2
I1
sS'canny_thresh'
p3
I582
sS'pupil_size'
p4
F75.889617919921875
sS'canny_ratio'
p5
I2
sS'draw_pupil'
p6
I01
sS'bin_thresh'
p7
I138
sS'canny_aperture'
p8
I5
sS'display'
p9
I2
sS'pupil_ratio'
p10
F0.66142088174819946
s.