ccopy_reg
_reconstructor
p1
(cmethods
Temp
p2
c__builtin__
object
p3
NtRp4
(dp5
S'vals'
p6
(F62.929454545454547
F18.08219178082193
F313.13454545454545
F222.46575342465752
tp7
sS'array_shape'
p8
(I240
I416
I3
tp9
sb.