(dp1
S'pupil_size'
p2
F110.55972290039062
sS'canny_tolerance'
p3
I1
sS'display'
p4
I4
sS'pupil_size_tolerance'
p5
F20
sS'bin_thresh'
p6
I97
sS'sleep'
p7
F0
sS'canny_thresh'
p8
I35
sS'pupil_point'
p9
I01
sS'canny_apture'
p10
I5
sS'pupil_ratio'
p11
F0.70496237277984619
s.