(dp1
S'pupil_size'
p2
F22.938827514648438
sS'draw_pupil'
p3
I01
sS'canny_ratio'
p4
I3
sS'display'
p5
I2
sS'pupil_size_tolerance'
p6
F10
sS'bin_thresh'
p7
I78
sS'canny_thresh'
p8
I55
sS'canny_apture'
p9
I7
sS'pupil_ratio'
p10
F0.96477711200714111
s.